target datalayout = "e-m:e-p270:32:32-p271:32:32-p272:64:64-i64:64-i128:128-f80:128-n8:16:32:64-S128"
target triple = "x86_64-pc-linux-gnu"

%struct.anon = type { i32, i32 }
%struct.data_s = type { i32, i32, %union.anon }
%union.anon = type { ptr }

@.str.70 = private unnamed_addr constant [8 x i8] c"INVALID\00", align 1

; Function Attrs: nounwind uwtable
define dso_local ptr @data_get_type_string(ptr noundef %0) #0 {
  %2 = alloca ptr, align 8
  %3 = alloca ptr, align 8
  %4 = alloca i32, align 4
  %5 = alloca i32, align 4
  store ptr %0, ptr %3, align 8
  %6 = load ptr, ptr %3, align 8
  %7 = icmp ne ptr %6, null
  br i1 %7, label %9, label %8

8:                                                ; preds = %1
  store ptr @.str.70, ptr %2, align 8
  br label %39

9:                                                ; preds = %1
  call void @llvm.lifetime.start.p0(i64 4, ptr %4) #10
  store i32 0, ptr %4, align 4
  br label %10

10:                                               ; preds = %33, %9
  %11 = load i32, ptr %4, align 4
  %12 = sext i32 %11 to i64
  %13 = icmp ult i64 %12, 8
  br i1 %13, label %15, label %14

14:                                               ; preds = %10
  store i32 2, ptr %5, align 4
  br label %36

15:                                               ; preds = %10
  %16 = load i32, ptr %4, align 4
  %17 = sext i32 %16 to i64
  %18 = getelementptr inbounds [8 x %struct.anon], ptr @type_map, i64 0, i64 %17
  %19 = getelementptr inbounds nuw %struct.anon, ptr %18, i32 0, i32 1
  %20 = load i32, ptr %19, align 4
  %21 = load ptr, ptr %3, align 8
  %22 = getelementptr inbounds nuw %struct.data_s, ptr %21, i32 0, i32 1
  %23 = load i32, ptr %22, align 4
  %24 = icmp eq i32 %20, %23
  br i1 %24, label %25, label %32

25:                                               ; preds = %15
  %26 = load i32, ptr %4, align 4
  %27 = sext i32 %26 to i64
  %28 = getelementptr inbounds [8 x %struct.anon], ptr @type_map, i64 0, i64 %27
  %29 = getelementptr inbounds nuw %struct.anon, ptr %28, i32 0, i32 0
  %30 = load i32, ptr %29, align 8
  %31 = call ptr @data_type_to_string(i32 noundef %30)
  store ptr %31, ptr %2, align 8
  store i32 1, ptr %5, align 4
  br label %36

32:                                               ; preds = %15
  br label %33

33:                                               ; preds = %32
  %34 = load i32, ptr %4, align 4
  %35 = add nsw i32 %34, 1
  store i32 %35, ptr %4, align 4
  br label %10, !llvm.loop !35

36:                                               ; preds = %25, %14
  call void @llvm.lifetime.end.p0(i64 4, ptr %4) #10
  %37 = load i32, ptr %5, align 4
  switch i32 %37, label %41 [
    i32 2, label %38
    i32 1, label %39
  ]

38:                                               ; preds = %36
  store ptr @.str.70, ptr %2, align 8
  br label %39

39:                                               ; preds = %38, %36, %8
  %40 = load ptr, ptr %2, align 8
  ret ptr %40

41:                                               ; preds = %36
  unreachable
}