; Function Attrs: nofree nosync nounwind memory(argmem: read) uwtable
define dso_local nonnull ptr @data_get_type_string(ptr noundef readonly captures(address_is_null) %0) local_unnamed_addr #13 {
  %.not = icmp eq ptr %0, null
  br i1 %.not, label %.loopexit, label %.preheader

.preheader:                                       ; preds = %1
  %2 = getelementptr inbounds nuw i8, ptr %0, i64 4
  %3 = load i32, ptr %2, align 4
  br label %5

4:                                                ; preds = %5
  %indvars.iv.next = add nuw nsw i64 %indvars.iv, 1
  %exitcond = icmp eq i64 %indvars.iv.next, 8
  br i1 %exitcond, label %.loopexit, label %5, !llvm.loop !36

5:                                                ; preds = %.preheader, %4
  %indvars.iv = phi i64 [ 0, %.preheader ], [ %indvars.iv.next, %4 ]
  %6 = getelementptr inbounds nuw [8 x %struct.anon], ptr @type_map, i64 0, i64 %indvars.iv
  %7 = getelementptr inbounds nuw i8, ptr %6, i64 4
  %8 = load i32, ptr %7, align 4
  %9 = icmp eq i32 %8, %3
  br i1 %9, label %10, label %4

10:                                               ; preds = %5
  %11 = load i32, ptr %6, align 8
  %12 = tail call ptr @data_type_to_string(i32 noundef %11)
  br label %.loopexit

.loopexit:                                        ; preds = %4, %10, %1
  %.08 = phi ptr [ @.str.70, %1 ], [ %12, %10 ], [ @.str.70, %4 ]
  ret ptr %.08
}